; Function Attrs: nounwind uwtable
define ptr @l_Lean_expandExternPattern(ptr noundef %0, ptr noundef %1) local_unnamed_addr #0 {
  %3 = getelementptr i8, ptr %0, i64 24
  %.val = load i64, ptr %3, align 8, !tbaa !8
  tail call void @lean_inc_heartbeat() #6
  %4 = tail call noalias ptr @mi_malloc_small(i64 noundef 24) #6
  %5 = icmp eq ptr %4, null
  br i1 %5, label %6, label %lean_alloc_ctor.exit

6:                                                ; preds = %2
  tail call void @lean_internal_panic_out_of_memory() #7
  unreachable

lean_alloc_ctor.exit:                             ; preds = %2
  %7 = shl i64 %.val, 1
  %8 = or disjoint i64 %7, 1
  %9 = inttoptr i64 %8 to ptr
  %10 = getelementptr inbounds nuw i8, ptr %4, i64 4
  store i32 1, ptr %4, align 4, !tbaa !10
  store i32 131096, ptr %10, align 4
  %11 = getelementptr inbounds nuw i8, ptr %4, i64 8
  store ptr %0, ptr %11, align 8, !tbaa !4
  %12 = getelementptr inbounds nuw i8, ptr %4, i64 16
  store ptr inttoptr (i64 1 to ptr), ptr %12, align 8, !tbaa !4
  %13 = load ptr, ptr @l_Lean_expandExternPatternAux___closed__1, align 8, !tbaa !4
  %14 = tail call ptr @l_Lean_expandExternPatternAux(ptr noundef %1, ptr noundef nonnull %9, ptr noundef nonnull %4, ptr noundef %13)
  ret ptr %14
}